target datalayout = "e-m:e-p270:32:32-p271:32:32-p272:64:64-i64:64-i128:128-f80:128-n8:16:32:64-S128"
target triple = "x86_64-pc-linux-gnu"

%struct.OnigEncodingTypeST = type { ptr, ptr, i32, i32, ptr, ptr, ptr, ptr, ptr, ptr, ptr, ptr, ptr, ptr, ptr, ptr, ptr, i32, i32 }
%struct._BBuf = type { ptr, i32, i32 }

; Function Attrs: nounwind sspstrong uwtable
define internal i32 @add_code_range_to_buf(ptr noundef %0, ptr noundef %1, i32 noundef %2, i32 noundef %3) #0 {
  %5 = alloca ptr, align 8
  %6 = alloca ptr, align 8
  %7 = alloca i32, align 4
  %8 = alloca i32, align 4
  store ptr %0, ptr %5, align 8, !tbaa !175
  store ptr %1, ptr %6, align 8, !tbaa !12
  store i32 %2, ptr %7, align 4, !tbaa !13
  store i32 %3, ptr %8, align 4, !tbaa !13
  %9 = load ptr, ptr %5, align 8, !tbaa !175
  %10 = load ptr, ptr %6, align 8, !tbaa !12
  %11 = load i32, ptr %7, align 4, !tbaa !13
  %12 = load i32, ptr %8, align 4, !tbaa !13
  %13 = call i32 @add_code_range_to_buf0(ptr noundef %9, ptr noundef %10, i32 noundef %11, i32 noundef %12, i32 noundef 1)
  ret i32 %13
}

; Function Attrs: nounwind sspstrong uwtable
define internal i32 @not_code_range_buf(ptr noundef %0, ptr noundef %1, ptr noundef %2, ptr noundef %3) #0 {
  %5 = alloca i32, align 4
  %6 = alloca ptr, align 8
  %7 = alloca ptr, align 8
  %8 = alloca ptr, align 8
  %9 = alloca ptr, align 8
  %10 = alloca i32, align 4
  %11 = alloca i32, align 4
  %12 = alloca i32, align 4
  %13 = alloca i32, align 4
  %14 = alloca i32, align 4
  %15 = alloca ptr, align 8
  %16 = alloca i32, align 4
  %17 = alloca i32, align 4
  store ptr %0, ptr %6, align 8, !tbaa !79
  store ptr %1, ptr %7, align 8, !tbaa !73
  store ptr %2, ptr %8, align 8, !tbaa !175
  store ptr %3, ptr %9, align 8, !tbaa !12
  call void @llvm.lifetime.start.p0(i64 4, ptr %10) #13
  call void @llvm.lifetime.start.p0(i64 4, ptr %11) #13
  call void @llvm.lifetime.start.p0(i64 4, ptr %12) #13
  call void @llvm.lifetime.start.p0(i64 4, ptr %13) #13
  call void @llvm.lifetime.start.p0(i64 4, ptr %14) #13
  call void @llvm.lifetime.start.p0(i64 8, ptr %15) #13
  call void @llvm.lifetime.start.p0(i64 4, ptr %16) #13
  store i32 0, ptr %16, align 4, !tbaa !13
  %18 = load ptr, ptr %8, align 8, !tbaa !175
  store ptr null, ptr %18, align 8, !tbaa !73
  %19 = load ptr, ptr %7, align 8, !tbaa !73
  %20 = icmp eq ptr %19, null
  br i1 %20, label %21, label %31

21:                                               ; preds = %4
  br label %22

22:                                               ; preds = %41, %21
  %23 = load ptr, ptr %8, align 8, !tbaa !175
  %24 = load ptr, ptr %9, align 8, !tbaa !12
  %25 = load ptr, ptr %6, align 8, !tbaa !79
  %26 = getelementptr inbounds nuw %struct.OnigEncodingTypeST, ptr %25, i32 0, i32 3
  %27 = load i32, ptr %26, align 4, !tbaa !83
  %28 = icmp sgt i32 %27, 1
  %29 = select i1 %28, i32 0, i32 128
  %30 = call i32 @add_code_range_to_buf(ptr noundef %23, ptr noundef %24, i32 noundef %29, i32 noundef -1)
  store i32 %30, ptr %5, align 4
  store i32 1, ptr %17, align 4
  br label %103

31:                                               ; preds = %4
  %32 = load ptr, ptr %7, align 8, !tbaa !73
  %33 = getelementptr inbounds nuw %struct._BBuf, ptr %32, i32 0, i32 0
  %34 = load ptr, ptr %33, align 8, !tbaa !74
  store ptr %34, ptr %15, align 8, !tbaa !45
  %35 = load ptr, ptr %15, align 8, !tbaa !45
  %36 = load i32, ptr %35, align 4, !tbaa !13
  store i32 %36, ptr %12, align 4, !tbaa !13
  %37 = load ptr, ptr %15, align 8, !tbaa !45
  %38 = getelementptr i32, ptr %37, i32 1
  store ptr %38, ptr %15, align 8, !tbaa !45
  %39 = load i32, ptr %12, align 4, !tbaa !13
  %40 = icmp sle i32 %39, 0
  br i1 %40, label %41, label %42

41:                                               ; preds = %31
  br label %22

42:                                               ; preds = %31
  store i32 0, ptr %10, align 4, !tbaa !13
  %43 = load ptr, ptr %6, align 8, !tbaa !79
  %44 = getelementptr inbounds nuw %struct.OnigEncodingTypeST, ptr %43, i32 0, i32 3
  %45 = load i32, ptr %44, align 4, !tbaa !83
  %46 = icmp sgt i32 %45, 1
  %47 = select i1 %46, i32 0, i32 128
  store i32 %47, ptr %13, align 4, !tbaa !13
  store i32 0, ptr %11, align 4, !tbaa !13
  br label %48

48:                                               ; preds = %89, %42
  %49 = load i32, ptr %11, align 4, !tbaa !13
  %50 = load i32, ptr %12, align 4, !tbaa !13
  %51 = icmp slt i32 %49, %50
  br i1 %51, label %52, label %92

52:                                               ; preds = %48
  %53 = load ptr, ptr %15, align 8, !tbaa !45
  %54 = load i32, ptr %11, align 4, !tbaa !13
  %55 = mul i32 %54, 2
  %56 = sext i32 %55 to i64
  %57 = getelementptr i32, ptr %53, i64 %56
  %58 = load i32, ptr %57, align 4, !tbaa !13
  store i32 %58, ptr %14, align 4, !tbaa !13
  %59 = load ptr, ptr %15, align 8, !tbaa !45
  %60 = load i32, ptr %11, align 4, !tbaa !13
  %61 = mul i32 %60, 2
  %62 = add i32 %61, 1
  %63 = sext i32 %62 to i64
  %64 = getelementptr i32, ptr %59, i64 %63
  %65 = load i32, ptr %64, align 4, !tbaa !13
  store i32 %65, ptr %16, align 4, !tbaa !13
  %66 = load i32, ptr %13, align 4, !tbaa !13
  %67 = load i32, ptr %14, align 4, !tbaa !13
  %68 = sub i32 %67, 1
  %69 = icmp ule i32 %66, %68
  br i1 %69, label %70, label %82

70:                                               ; preds = %52
  %71 = load ptr, ptr %8, align 8, !tbaa !175
  %72 = load ptr, ptr %9, align 8, !tbaa !12
  %73 = load i32, ptr %13, align 4, !tbaa !13
  %74 = load i32, ptr %14, align 4, !tbaa !13
  %75 = sub i32 %74, 1
  %76 = call i32 @add_code_range_to_buf(ptr noundef %71, ptr noundef %72, i32 noundef %73, i32 noundef %75)
  store i32 %76, ptr %10, align 4, !tbaa !13
  %77 = load i32, ptr %10, align 4, !tbaa !13
  %78 = icmp ne i32 %77, 0
  br i1 %78, label %79, label %81

79:                                               ; preds = %70
  %80 = load i32, ptr %10, align 4, !tbaa !13
  store i32 %80, ptr %5, align 4
  store i32 1, ptr %17, align 4
  br label %103

81:                                               ; preds = %70
  br label %82

82:                                               ; preds = %81, %52
  %83 = load i32, ptr %16, align 4, !tbaa !13
  %84 = icmp eq i32 %83, -1
  br i1 %84, label %85, label %86

85:                                               ; preds = %82
  br label %92

86:                                               ; preds = %82
  %87 = load i32, ptr %16, align 4, !tbaa !13
  %88 = add i32 %87, 1
  store i32 %88, ptr %13, align 4, !tbaa !13
  br label %89

89:                                               ; preds = %86
  %90 = load i32, ptr %11, align 4, !tbaa !13
  %91 = add i32 %90, 1
  store i32 %91, ptr %11, align 4, !tbaa !13
  br label %48, !llvm.loop !192

92:                                               ; preds = %85, %48
  %93 = load i32, ptr %16, align 4, !tbaa !13
  %94 = icmp ult i32 %93, -1
  br i1 %94, label %95, label %101

95:                                               ; preds = %92
  %96 = load ptr, ptr %8, align 8, !tbaa !175
  %97 = load ptr, ptr %9, align 8, !tbaa !12
  %98 = load i32, ptr %16, align 4, !tbaa !13
  %99 = add i32 %98, 1
  %100 = call i32 @add_code_range_to_buf(ptr noundef %96, ptr noundef %97, i32 noundef %99, i32 noundef -1)
  store i32 %100, ptr %10, align 4, !tbaa !13
  br label %101

101:                                              ; preds = %95, %92
  %102 = load i32, ptr %10, align 4, !tbaa !13
  store i32 %102, ptr %5, align 4
  store i32 1, ptr %17, align 4
  br label %103

103:                                              ; preds = %101, %79, %22
  call void @llvm.lifetime.end.p0(i64 4, ptr %16) #13
  call void @llvm.lifetime.end.p0(i64 8, ptr %15) #13
  call void @llvm.lifetime.end.p0(i64 4, ptr %14) #13
  call void @llvm.lifetime.end.p0(i64 4, ptr %13) #13
  call void @llvm.lifetime.end.p0(i64 4, ptr %12) #13
  call void @llvm.lifetime.end.p0(i64 4, ptr %11) #13
  call void @llvm.lifetime.end.p0(i64 4, ptr %10) #13
  %104 = load i32, ptr %5, align 4
  ret i32 %104
}