; Function Attrs: nounwind sspstrong uwtable
define internal fastcc i32 @not_code_range_buf(ptr noundef readonly captures(none) %0, ptr noundef readonly captures(address_is_null) %1, ptr noundef nonnull captures(none) initializes((0, 8)) %2, ptr noundef captures(none) %3) unnamed_addr #5 {
  store ptr null, ptr %2, align 8, !tbaa !128
  %5 = icmp eq ptr %1, null
  br i1 %5, label %6, label %11

6:                                                ; preds = %11, %4
  %7 = getelementptr inbounds nuw i8, ptr %0, i64 20
  %8 = load i32, ptr %7, align 4, !tbaa !45
  %9 = icmp sgt i32 %8, 1
  %10 = select i1 %9, i32 0, i32 128
  br label %.thread.sink.split

11:                                               ; preds = %4
  %12 = load ptr, ptr %1, align 8, !tbaa !64
  %13 = load i32, ptr %12, align 4, !tbaa !11
  %14 = getelementptr i8, ptr %12, i64 4
  %15 = icmp slt i32 %13, 1
  br i1 %15, label %6, label %16

16:                                               ; preds = %11
  %17 = getelementptr inbounds nuw i8, ptr %0, i64 20
  %18 = load i32, ptr %17, align 4, !tbaa !45
  %19 = icmp sgt i32 %18, 1
  %20 = select i1 %19, i32 0, i32 128
  %wide.trip.count = zext nneg i32 %13 to i64
  br label %21

21:                                               ; preds = %16, %35
  %indvars.iv = phi i64 [ 0, %16 ], [ %indvars.iv.next, %35 ]
  %.03350 = phi i32 [ %20, %16 ], [ %36, %35 ]
  %sext = shl i64 %indvars.iv, 33
  %22 = ashr exact i64 %sext, 30
  %23 = getelementptr i8, ptr %14, i64 %22
  %24 = load i32, ptr %23, align 4, !tbaa !11
  %indvars.iv.tr = trunc i64 %indvars.iv to i32
  %25 = shl i32 %indvars.iv.tr, 1
  %26 = or disjoint i32 %25, 1
  %27 = sext i32 %26 to i64
  %28 = getelementptr i32, ptr %14, i64 %27
  %29 = load i32, ptr %28, align 4, !tbaa !11
  %30 = add i32 %24, -1
  %.not = icmp ugt i32 %.03350, %30
  br i1 %.not, label %33, label %31

31:                                               ; preds = %21
  %32 = tail call fastcc i32 @add_code_range_to_buf0(ptr noundef nonnull %2, ptr noundef %3, i32 noundef %.03350, i32 noundef %30, i32 noundef 1)
  %.not44 = icmp eq i32 %32, 0
  br i1 %.not44, label %33, label %.thread

33:                                               ; preds = %31, %21
  %34 = icmp eq i32 %29, -1
  br i1 %34, label %.thread, label %35

35:                                               ; preds = %33
  %36 = add nuw i32 %29, 1
  %indvars.iv.next = add nuw nsw i64 %indvars.iv, 1
  %exitcond.not = icmp eq i64 %indvars.iv.next, %wide.trip.count
  br i1 %exitcond.not, label %.thread.sink.split, label %21, !llvm.loop !178

.thread.sink.split:                               ; preds = %35, %6
  %.lcssa.sink = phi i32 [ %10, %6 ], [ %36, %35 ]
  %37 = tail call fastcc i32 @add_code_range_to_buf0(ptr noundef nonnull %2, ptr noundef %3, i32 noundef %.lcssa.sink, i32 noundef -1, i32 noundef 1)
  br label %.thread

.thread:                                          ; preds = %33, %31, %.thread.sink.split
  %.032 = phi i32 [ %37, %.thread.sink.split ], [ 0, %33 ], [ %32, %31 ]
  ret i32 %.032
}